target datalayout = "e-m:e-p270:32:32-p271:32:32-p272:64:64-i64:64-i128:128-f80:128-n8:16:32:64-S128"
target triple = "x86_64-pc-linux-gnu"

%struct.SDL_GPUDevice = type { ptr, ptr, ptr, ptr, ptr, ptr, ptr, ptr, ptr, ptr, ptr, ptr, ptr, ptr, ptr, ptr, ptr, ptr, ptr, ptr, ptr, ptr, ptr, ptr, ptr, ptr, ptr, ptr, ptr, ptr, ptr, ptr, ptr, ptr, ptr, ptr, ptr, ptr, ptr, ptr, ptr, ptr, ptr, ptr, ptr, ptr, ptr, ptr, ptr, ptr, ptr, ptr, ptr, ptr, ptr, ptr, ptr, ptr, ptr, ptr, ptr, ptr, ptr, ptr, ptr, ptr, ptr, ptr, ptr, ptr, ptr, ptr, ptr, ptr, ptr, ptr, ptr, ptr, ptr, ptr, ptr, ptr, ptr, ptr, ptr, i32, i8 }

@.str.3 = private unnamed_addr constant [19 x i8] c"Invalid GPU device\00", align 1
@.str.4 = private unnamed_addr constant [26 x i8] c"Parameter '%s' is invalid\00", align 1
@.str.282 = private unnamed_addr constant [16 x i8] c"transfer_buffer\00", align 1

; Function Attrs: nounwind uwtable
define hidden void @SDL_UnmapGPUTransferBuffer_REAL(ptr noundef %0, ptr noundef %1) #0 {
  %3 = alloca ptr, align 8
  %4 = alloca ptr, align 8
  store ptr %0, ptr %3, align 8
  store ptr %1, ptr %4, align 8
  %5 = load ptr, ptr %3, align 8
  %6 = icmp eq ptr %5, null
  br i1 %6, label %7, label %9

7:                                                ; preds = %2
  %8 = call zeroext i1 (ptr, ...) @SDL_SetError_REAL(ptr noundef @.str.3)
  br label %22

9:                                                ; preds = %2
  %10 = load ptr, ptr %4, align 8
  %11 = icmp eq ptr %10, null
  br i1 %11, label %12, label %14

12:                                               ; preds = %9
  %13 = call zeroext i1 (ptr, ...) @SDL_SetError_REAL(ptr noundef @.str.4, ptr noundef @.str.282)
  br label %22

14:                                               ; preds = %9
  %15 = load ptr, ptr %3, align 8
  %16 = getelementptr inbounds nuw %struct.SDL_GPUDevice, ptr %15, i32 0, i32 52
  %17 = load ptr, ptr %16, align 8
  %18 = load ptr, ptr %3, align 8
  %19 = getelementptr inbounds nuw %struct.SDL_GPUDevice, ptr %18, i32 0, i32 83
  %20 = load ptr, ptr %19, align 8
  %21 = load ptr, ptr %4, align 8
  call void %17(ptr noundef %20, ptr noundef %21)
  br label %22

22:                                               ; preds = %14, %12, %7
  ret void
}